; Function Attrs: mustprogress uwtable
define noundef zeroext i1 @_ZNK32pxrInternal_v0_24__pxrReserved__17UsdUsdcFileFormat4ReadEPNS_8SdfLayerERKNSt7__cxx1112basic_stringIcSt11char_traitsIcESaIcEEEb(ptr noundef nonnull align 8 dereferenceable(113) %0, ptr noundef %1, ptr noundef nonnull align 8 dereferenceable(32) %2, i1 noundef zeroext %3) unnamed_addr #1 align 2 personality ptr @__gxx_personality_v0 {
  %5 = alloca %"class.pxrInternal_v0_24__pxrReserved__::TraceKey", align 8
  %6 = alloca %"class.pxrInternal_v0_24__pxrReserved__::TraceKey", align 8
  %7 = alloca i8, align 1
  %8 = load atomic i32, ptr @_ZN32pxrInternal_v0_24__pxrReserved__14TraceCollector10_isEnabledE acquire, align 4
  %9 = icmp eq i32 %8, 1
  br i1 %9, label %10, label %_ZN32pxrInternal_v0_24__pxrReserved__14TraceScopeAutoC2ERKNS_18TraceStaticKeyDataE.exit

10:                                               ; preds = %4
  fence syncscope("singlethread") seq_cst
  %11 = tail call { i32, i32 } asm sideeffect "lfence\0A\09rdtsc\0A\09lfence", "={ax},={dx},~{dirflag},~{fpsr},~{flags}"() #18, !srcloc !6
  %12 = extractvalue { i32, i32 } %11, 0
  %13 = extractvalue { i32, i32 } %11, 1
  %14 = zext i32 %13 to i64
  %15 = shl nuw i64 %14, 32
  %16 = zext i32 %12 to i64
  br label %_ZN32pxrInternal_v0_24__pxrReserved__14TraceScopeAutoC2ERKNS_18TraceStaticKeyDataE.exit

_ZN32pxrInternal_v0_24__pxrReserved__14TraceScopeAutoC2ERKNS_18TraceStaticKeyDataE.exit: ; preds = %4, %10
  %.sroa.7.0 = phi i64 [ %16, %10 ], [ 0, %4 ]
  %.sroa.11.0 = phi i64 [ %15, %10 ], [ 0, %4 ]
  store i8 0, ptr %7, align 1
  %17 = invoke noundef zeroext i1 @_ZNK32pxrInternal_v0_24__pxrReserved__17UsdUsdcFileFormat11_ReadHelperIJbEEEbPNS_8SdfLayerERKNSt7__cxx1112basic_stringIcSt11char_traitsIcESaIcEEEbDpOT_(ptr noundef nonnull align 8 dereferenceable(113) %0, ptr noundef %1, ptr noundef nonnull align 8 dereferenceable(32) %2, i1 noundef zeroext %3, ptr noundef nonnull align 1 dereferenceable(1) %7)
          to label %18 unwind label %21

18:                                               ; preds = %_ZN32pxrInternal_v0_24__pxrReserved__14TraceScopeAutoC2ERKNS_18TraceStaticKeyDataE.exit
  call void @llvm.lifetime.start.p0(i64 8, ptr nonnull %6)
  br i1 %9, label %19, label %_ZN32pxrInternal_v0_24__pxrReserved__14TraceScopeAutoD2Ev.exit

19:                                               ; preds = %18
  fence syncscope("singlethread") seq_cst
  %20 = call noundef i64 asm sideeffect "rdtscp\0A\09shl $$32, %rdx\0A\09or %rdx, $0\0A\09lfence", "={ax},~{rcx},~{rdx},~{cc},~{dirflag},~{fpsr},~{flags}"() #18, !srcloc !7
  store ptr @_ZZNK32pxrInternal_v0_24__pxrReserved__17UsdUsdcFileFormat4ReadEPNS_8SdfLayerERKNSt7__cxx1112basic_stringIcSt11char_traitsIcESaIcEEEbE15TraceKeyData_91, ptr %6, align 8
  %.sroa.7.12.insert.insert = or disjoint i64 %.sroa.11.0, %.sroa.7.0
  call void @_ZN32pxrInternal_v0_24__pxrReserved__14TraceCollector5ScopeERKNS_8TraceKeyEmm(ptr noundef nonnull align 8 dereferenceable(8) %6, i64 noundef %.sroa.7.12.insert.insert, i64 noundef %20) #18
  br label %_ZN32pxrInternal_v0_24__pxrReserved__14TraceScopeAutoD2Ev.exit

_ZN32pxrInternal_v0_24__pxrReserved__14TraceScopeAutoD2Ev.exit: ; preds = %18, %19
  call void @llvm.lifetime.end.p0(i64 8, ptr nonnull %6)
  ret i1 %17

21:                                               ; preds = %_ZN32pxrInternal_v0_24__pxrReserved__14TraceScopeAutoC2ERKNS_18TraceStaticKeyDataE.exit
  %22 = landingpad { ptr, i32 }
          cleanup
  call void @llvm.lifetime.start.p0(i64 8, ptr nonnull %5)
  br i1 %9, label %23, label %_ZN32pxrInternal_v0_24__pxrReserved__14TraceScopeAutoD2Ev.exit5

23:                                               ; preds = %21
  fence syncscope("singlethread") seq_cst
  %24 = call noundef i64 asm sideeffect "rdtscp\0A\09shl $$32, %rdx\0A\09or %rdx, $0\0A\09lfence", "={ax},~{rcx},~{rdx},~{cc},~{dirflag},~{fpsr},~{flags}"() #18, !srcloc !7
  store ptr @_ZZNK32pxrInternal_v0_24__pxrReserved__17UsdUsdcFileFormat4ReadEPNS_8SdfLayerERKNSt7__cxx1112basic_stringIcSt11char_traitsIcESaIcEEEbE15TraceKeyData_91, ptr %5, align 8
  %.sroa.7.12.insert.insert11 = or disjoint i64 %.sroa.11.0, %.sroa.7.0
  call void @_ZN32pxrInternal_v0_24__pxrReserved__14TraceCollector5ScopeERKNS_8TraceKeyEmm(ptr noundef nonnull align 8 dereferenceable(8) %5, i64 noundef %.sroa.7.12.insert.insert11, i64 noundef %24) #18
  br label %_ZN32pxrInternal_v0_24__pxrReserved__14TraceScopeAutoD2Ev.exit5

_ZN32pxrInternal_v0_24__pxrReserved__14TraceScopeAutoD2Ev.exit5: ; preds = %21, %23
  call void @llvm.lifetime.end.p0(i64 8, ptr nonnull %5)
  resume { ptr, i32 } %22
}